target datalayout = "e-m:e-p270:32:32-p271:32:32-p272:64:64-i64:64-i128:128-f80:128-n8:16:32:64-S128"
target triple = "x86_64-unknown-linux-gnu"

@.str = private unnamed_addr constant [2 x i8] c"N\00", align 1

; Function Attrs: mustprogress uwtable
define hidden void @_ZN1q16display_num_argsERSoj(ptr noundef nonnull align 8 dereferenceable(8) %out, i32 noundef %num_args) #5 {
entry:
  %out.addr = alloca ptr, align 8
  %num_args.addr = alloca i32, align 4
  store ptr %out, ptr %out.addr, align 8
  store i32 %num_args, ptr %num_args.addr, align 4
  %0 = load i32, ptr %num_args.addr, align 4
  %cmp = icmp ule i32 %0, 6
  br i1 %cmp, label %if.then, label %if.else

if.then:                                          ; preds = %entry
  %1 = load ptr, ptr %out.addr, align 8
  %2 = load i32, ptr %num_args.addr, align 4
  %call = call noundef nonnull align 8 dereferenceable(8) ptr @_ZNSolsEj(ptr noundef nonnull align 8 dereferenceable(8) %1, i32 noundef %2)
  br label %if.end

if.else:                                          ; preds = %entry
  %3 = load ptr, ptr %out.addr, align 8
  %call1 = call noundef nonnull align 8 dereferenceable(8) ptr @_ZStlsISt11char_traitsIcEERSt13basic_ostreamIcT_ES5_PKc(ptr noundef nonnull align 8 dereferenceable(8) %3, ptr noundef @.str)
  br label %if.end

if.end:                                           ; preds = %if.else, %if.then
  ret void
}