; Function Attrs: mustprogress uwtable
define hidden void @_ZN1q16display_num_argsERSoj(ptr noundef nonnull align 8 dereferenceable(8) %out, i32 noundef %num_args) local_unnamed_addr #4 {
entry:
  %cmp = icmp ult i32 %num_args, 7
  br i1 %cmp, label %if.then, label %if.else

if.then:                                          ; preds = %entry
  %call = tail call noundef nonnull align 8 dereferenceable(8) ptr @_ZNSolsEj(ptr noundef nonnull align 8 dereferenceable(8) %out, i32 noundef %num_args)
  br label %if.end

if.else:                                          ; preds = %entry
  %call1 = tail call noundef nonnull align 8 dereferenceable(8) ptr @_ZStlsISt11char_traitsIcEERSt13basic_ostreamIcT_ES5_PKc(ptr noundef nonnull align 8 dereferenceable(8) %out, ptr noundef nonnull @.str)
  br label %if.end

if.end:                                           ; preds = %if.else, %if.then
  ret void
}